target datalayout = "e-m:e-p270:32:32-p271:32:32-p272:64:64-i64:64-i128:128-f80:128-n8:16:32:64-S128"
target triple = "x86_64-pc-linux-gnu"

%struct.hf_register_info = type { ptr, %struct._header_field_info }
%struct._header_field_info = type { ptr, ptr, i32, i32, ptr, i64, ptr, i32, i32, i32, i32, ptr }
%struct._xml_ns_t = type { ptr, ptr, i32, i32, i32, ptr, ptr, ptr }
%struct._attr_reg_data = type { ptr, ptr }

@hf_arr = internal global ptr null, align 8
@ett_arr = internal global ptr null, align 8
@.str.80 = private unnamed_addr constant [2 x i8] c".\00", align 1

; Function Attrs: null_pointer_is_valid sspstrong uwtable
define internal void @add_xml_field(ptr noundef %0, ptr noundef %1, ptr noundef %2, ptr noundef %3) #3 {
  %5 = alloca ptr, align 8
  %6 = alloca ptr, align 8
  %7 = alloca ptr, align 8
  %8 = alloca ptr, align 8
  %9 = alloca %struct.hf_register_info, align 8
  store ptr %0, ptr %5, align 8
  store ptr %1, ptr %6, align 8
  store ptr %2, ptr %7, align 8
  store ptr %3, ptr %8, align 8
  call void @llvm.lifetime.start.p0(i64 80, ptr %9) #10
  %10 = load ptr, ptr %6, align 8
  %11 = getelementptr inbounds nuw %struct.hf_register_info, ptr %9, i32 0, i32 0
  store ptr %10, ptr %11, align 8
  %12 = load ptr, ptr %7, align 8
  %13 = getelementptr inbounds nuw %struct.hf_register_info, ptr %9, i32 0, i32 1
  %14 = getelementptr inbounds nuw %struct._header_field_info, ptr %13, i32 0, i32 0
  store ptr %12, ptr %14, align 8
  %15 = load ptr, ptr %8, align 8
  %16 = getelementptr inbounds nuw %struct.hf_register_info, ptr %9, i32 0, i32 1
  %17 = getelementptr inbounds nuw %struct._header_field_info, ptr %16, i32 0, i32 1
  store ptr %15, ptr %17, align 8
  %18 = getelementptr inbounds nuw %struct.hf_register_info, ptr %9, i32 0, i32 1
  %19 = getelementptr inbounds nuw %struct._header_field_info, ptr %18, i32 0, i32 2
  store i32 26, ptr %19, align 8
  %20 = getelementptr inbounds nuw %struct.hf_register_info, ptr %9, i32 0, i32 1
  %21 = getelementptr inbounds nuw %struct._header_field_info, ptr %20, i32 0, i32 3
  store i32 0, ptr %21, align 4
  %22 = getelementptr inbounds nuw %struct.hf_register_info, ptr %9, i32 0, i32 1
  %23 = getelementptr inbounds nuw %struct._header_field_info, ptr %22, i32 0, i32 4
  store ptr null, ptr %23, align 8
  %24 = getelementptr inbounds nuw %struct.hf_register_info, ptr %9, i32 0, i32 1
  %25 = getelementptr inbounds nuw %struct._header_field_info, ptr %24, i32 0, i32 5
  store i64 0, ptr %25, align 8
  %26 = getelementptr inbounds nuw %struct.hf_register_info, ptr %9, i32 0, i32 1
  %27 = getelementptr inbounds nuw %struct._header_field_info, ptr %26, i32 0, i32 6
  store ptr null, ptr %27, align 8
  %28 = getelementptr inbounds nuw %struct.hf_register_info, ptr %9, i32 0, i32 1
  %29 = getelementptr inbounds nuw %struct._header_field_info, ptr %28, i32 0, i32 7
  store i32 -1, ptr %29, align 8
  %30 = getelementptr inbounds nuw %struct.hf_register_info, ptr %9, i32 0, i32 1
  %31 = getelementptr inbounds nuw %struct._header_field_info, ptr %30, i32 0, i32 8
  store i32 0, ptr %31, align 4
  %32 = getelementptr inbounds nuw %struct.hf_register_info, ptr %9, i32 0, i32 1
  %33 = getelementptr inbounds nuw %struct._header_field_info, ptr %32, i32 0, i32 9
  store i32 0, ptr %33, align 8
  %34 = getelementptr inbounds nuw %struct.hf_register_info, ptr %9, i32 0, i32 1
  %35 = getelementptr inbounds nuw %struct._header_field_info, ptr %34, i32 0, i32 10
  store i32 -1, ptr %35, align 4
  %36 = getelementptr inbounds nuw %struct.hf_register_info, ptr %9, i32 0, i32 1
  %37 = getelementptr inbounds nuw %struct._header_field_info, ptr %36, i32 0, i32 11
  store ptr null, ptr %37, align 8
  %38 = load ptr, ptr %5, align 8
  call void @wmem_array_append(ptr noundef %38, ptr noundef %9, i32 noundef 1)
  call void @llvm.lifetime.end.p0(i64 80, ptr %9) #10
  ret void
}

; Function Attrs: null_pointer_is_valid sspstrong uwtable
define internal void @add_xmlpi_namespace(ptr noundef %0, ptr noundef %1, ptr noundef %2) #3 {
  %4 = alloca ptr, align 8
  %5 = alloca ptr, align 8
  %6 = alloca ptr, align 8
  %7 = alloca ptr, align 8
  %8 = alloca ptr, align 8
  %9 = alloca ptr, align 8
  %10 = alloca %struct._attr_reg_data, align 8
  store ptr %0, ptr %4, align 8
  store ptr %1, ptr %5, align 8
  store ptr %2, ptr %6, align 8
  call void @llvm.lifetime.start.p0(i64 8, ptr %7) #10
  %11 = load ptr, ptr %5, align 8
  store ptr %11, ptr %7, align 8
  call void @llvm.lifetime.start.p0(i64 8, ptr %8) #10
  %12 = call ptr @wmem_epan_scope()
  %13 = load ptr, ptr %6, align 8
  %14 = load ptr, ptr %7, align 8
  %15 = getelementptr inbounds nuw %struct._xml_ns_t, ptr %14, i32 0, i32 0
  %16 = load ptr, ptr %15, align 8
  %17 = call noalias ptr (ptr, ptr, ...) @wmem_strconcat(ptr noundef %12, ptr noundef %13, ptr noundef @.str.80, ptr noundef %16, ptr noundef null)
  store ptr %17, ptr %8, align 8
  call void @llvm.lifetime.start.p0(i64 8, ptr %9) #10
  %18 = load ptr, ptr %7, align 8
  %19 = getelementptr inbounds nuw %struct._xml_ns_t, ptr %18, i32 0, i32 4
  store ptr %19, ptr %9, align 8
  call void @llvm.lifetime.start.p0(i64 16, ptr %10) #10
  %20 = load ptr, ptr @hf_arr, align 8
  %21 = load ptr, ptr %7, align 8
  %22 = getelementptr inbounds nuw %struct._xml_ns_t, ptr %21, i32 0, i32 2
  %23 = load ptr, ptr %8, align 8
  %24 = load ptr, ptr %8, align 8
  call void @add_xml_field(ptr noundef %20, ptr noundef %22, ptr noundef %23, ptr noundef %24)
  %25 = load ptr, ptr @ett_arr, align 8
  %26 = call ptr @g_array_append_vals(ptr noundef %25, ptr noundef %9, i32 noundef 1)
  %27 = load ptr, ptr %8, align 8
  %28 = getelementptr inbounds nuw %struct._attr_reg_data, ptr %10, i32 0, i32 1
  store ptr %27, ptr %28, align 8
  %29 = load ptr, ptr @hf_arr, align 8
  %30 = getelementptr inbounds nuw %struct._attr_reg_data, ptr %10, i32 0, i32 0
  store ptr %29, ptr %30, align 8
  %31 = load ptr, ptr %7, align 8
  %32 = getelementptr inbounds nuw %struct._xml_ns_t, ptr %31, i32 0, i32 5
  %33 = load ptr, ptr %32, align 8
  call void @wmem_map_foreach(ptr noundef %33, ptr noundef @add_xml_attribute_names, ptr noundef %10)
  call void @llvm.lifetime.end.p0(i64 16, ptr %10) #10
  call void @llvm.lifetime.end.p0(i64 8, ptr %9) #10
  call void @llvm.lifetime.end.p0(i64 8, ptr %8) #10
  call void @llvm.lifetime.end.p0(i64 8, ptr %7) #10
  ret void
}