; Function Attrs: null_pointer_is_valid sspstrong uwtable
define internal void @add_xmlpi_namespace(ptr readnone captures(none) %0, ptr noundef %1, ptr noundef %2) #4 {
  %4 = alloca %struct.hf_register_info, align 8
  %5 = alloca ptr, align 8
  %6 = alloca %struct._attr_reg_data, align 8
  %7 = tail call ptr @wmem_epan_scope()
  %8 = load ptr, ptr %1, align 8
  %9 = tail call noalias ptr (ptr, ptr, ...) @wmem_strconcat(ptr noundef %7, ptr noundef %2, ptr noundef nonnull @.str.80, ptr noundef %8, ptr noundef null)
  call void @llvm.lifetime.start.p0(i64 8, ptr nonnull %5) #14
  %10 = getelementptr inbounds nuw i8, ptr %1, i64 24
  store ptr %10, ptr %5, align 8
  call void @llvm.lifetime.start.p0(i64 16, ptr nonnull %6) #14
  %11 = load ptr, ptr @hf_arr, align 8
  %12 = getelementptr inbounds nuw i8, ptr %1, i64 16
  call void @llvm.lifetime.start.p0(i64 80, ptr nonnull %4) #14
  store ptr %12, ptr %4, align 8
  %13 = getelementptr inbounds nuw i8, ptr %4, i64 8
  store ptr %9, ptr %13, align 8
  %14 = getelementptr inbounds nuw i8, ptr %4, i64 16
  store ptr %9, ptr %14, align 8
  %15 = getelementptr inbounds nuw i8, ptr %4, i64 24
  store i32 26, ptr %15, align 8
  %16 = getelementptr inbounds nuw i8, ptr %4, i64 28
  %17 = getelementptr inbounds nuw i8, ptr %4, i64 56
  call void @llvm.memset.p0.i64(ptr noundef nonnull align 4 dereferenceable(28) %16, i8 0, i64 28, i1 false)
  store i32 -1, ptr %17, align 8
  %18 = getelementptr inbounds nuw i8, ptr %4, i64 60
  store i32 0, ptr %18, align 4
  %19 = getelementptr inbounds nuw i8, ptr %4, i64 64
  store i32 0, ptr %19, align 8
  %20 = getelementptr inbounds nuw i8, ptr %4, i64 68
  store i32 -1, ptr %20, align 4
  %21 = getelementptr inbounds nuw i8, ptr %4, i64 72
  store ptr null, ptr %21, align 8
  call void @wmem_array_append(ptr noundef %11, ptr noundef nonnull %4, i32 noundef 1)
  call void @llvm.lifetime.end.p0(i64 80, ptr nonnull %4) #14
  %22 = load ptr, ptr @ett_arr, align 8
  %23 = call ptr @g_array_append_vals(ptr noundef %22, ptr noundef nonnull %5, i32 noundef 1)
  %24 = getelementptr inbounds nuw i8, ptr %6, i64 8
  store ptr %9, ptr %24, align 8
  %25 = load ptr, ptr @hf_arr, align 8
  store ptr %25, ptr %6, align 8
  %26 = getelementptr inbounds nuw i8, ptr %1, i64 32
  %27 = load ptr, ptr %26, align 8
  call void @wmem_map_foreach(ptr noundef %27, ptr noundef nonnull @add_xml_attribute_names, ptr noundef nonnull %6)
  call void @llvm.lifetime.end.p0(i64 16, ptr nonnull %6) #14
  call void @llvm.lifetime.end.p0(i64 8, ptr nonnull %5) #14
  ret void
}